; Function Attrs: nounwind sspstrong uwtable
define internal fastcc range(i64 5, 4) i64 @num_exact(i64 noundef %0) unnamed_addr #1 {
  %2 = icmp eq i64 %0, 0
  %3 = and i64 %0, 7
  %4 = icmp ne i64 %3, 0
  %5 = or i1 %2, %4
  br i1 %5, label %6, label %rb_type.exit.i

6:                                                ; preds = %1
  %7 = tail call i64 @llvm.fshl.i64(i64 %0, i64 %0, i64 62)
  switch i64 %7, label %8 [
    i64 0, label %rb_type.exit.thread.i
    i64 1, label %num_exact_check.exit
    i64 5, label %rb_type.exit.thread.i
    i64 9, label %rb_type.exit.thread.i
  ]

8:                                                ; preds = %6
  %9 = and i64 %0, 1
  %.not.i.i = icmp eq i64 %9, 0
  br i1 %.not.i.i, label %rb_type.exit.thread.i, label %rb_type.exit.thread18.i

rb_type.exit.i:                                   ; preds = %1
  %10 = inttoptr i64 %0 to ptr
  %11 = load i64, ptr %10, align 8, !tbaa !15
  %12 = trunc i64 %11 to i32
  %13 = and i32 %12, 31
  switch i32 %13, label %rb_type.exit.thread.i [
    i32 21, label %rb_type.exit.thread18.i
    i32 10, label %rb_type.exit.thread18.i
    i32 15, label %rb_type.exit.thread18.sink.split.i
    i32 17, label %num_exact_check.exit
    i32 5, label %num_exact_check.exit
  ]

rb_type.exit.thread.i:                            ; preds = %rb_type.exit.i, %8, %6, %6, %6
  %14 = tail call i64 @rb_check_funcall(i64 noundef %0, i64 noundef 3409, i32 noundef 0, ptr noundef null) #21
  %15 = icmp eq i64 %14, 36
  br i1 %15, label %28, label %16

16:                                               ; preds = %rb_type.exit.thread.i
  %17 = tail call i32 @rb_respond_to(i64 noundef %0, i64 noundef 3233) #21
  %.not.i = icmp eq i32 %17, 0
  br i1 %.not.i, label %num_exact_check.exit, label %18

18:                                               ; preds = %16
  %19 = and i64 %14, 1
  %.not.i15.i = icmp eq i64 %19, 0
  br i1 %.not.i15.i, label %20, label %rb_type.exit.thread18.i

20:                                               ; preds = %18
  %21 = icmp eq i64 %14, 0
  %22 = and i64 %14, 6
  %23 = icmp ne i64 %22, 0
  %24 = or i1 %21, %23
  br i1 %24, label %num_exact_check.exit, label %rb_integer_type_p.exit.i

rb_integer_type_p.exit.i:                         ; preds = %20
  %25 = inttoptr i64 %14 to ptr
  %26 = load i64, ptr %25, align 8, !tbaa !15
  %27 = and i64 %26, 31
  switch i64 %27, label %num_exact_check.exit [
    i64 10, label %rb_type.exit.thread18.i
    i64 15, label %rb_type.exit.thread18.sink.split.i
  ]

28:                                               ; preds = %rb_type.exit.thread.i
  %29 = tail call i64 @rb_check_to_int(i64 noundef %0) #21
  %30 = icmp eq i64 %29, 4
  br i1 %30, label %num_exact_check.exit, label %33

rb_type.exit.thread18.sink.split.i:               ; preds = %rb_integer_type_p.exit.i, %rb_type.exit.i
  %.sink.i = phi i64 [ %0, %rb_type.exit.i ], [ %14, %rb_integer_type_p.exit.i ]
  %31 = tail call i64 @rb_rational_canonicalize(i64 noundef %.sink.i) #21
  br label %rb_type.exit.thread18.i

rb_type.exit.thread18.i:                          ; preds = %rb_integer_type_p.exit.i, %rb_type.exit.thread18.sink.split.i, %18, %rb_type.exit.i, %rb_type.exit.i, %8
  %.0.i = phi i64 [ %14, %rb_integer_type_p.exit.i ], [ %0, %rb_type.exit.i ], [ %0, %rb_type.exit.i ], [ %0, %8 ], [ %14, %18 ], [ %31, %rb_type.exit.thread18.sink.split.i ]
  %32 = icmp ne i64 %.0.i, 4
  tail call void @llvm.assume(i1 %32)
  br label %33

num_exact_check.exit:                             ; preds = %rb_integer_type_p.exit.i, %28, %20, %16, %rb_type.exit.i, %rb_type.exit.i, %6
  tail call fastcc void @num_exact_fail(i64 noundef %0) #23
  unreachable

33:                                               ; preds = %rb_type.exit.thread18.i, %28
  %.013.i.ph = phi i64 [ %29, %28 ], [ %.0.i, %rb_type.exit.thread18.i ]
  ret i64 %.013.i.ph
}